; Function Attrs: nounwind uwtable
define hidden i32 @lsarpc_dissect_struct_lsa_StringLarge(ptr noundef %0, i32 noundef %1, ptr noundef %2, ptr noundef %3, ptr noundef %4, ptr noundef %5, i32 noundef %6, i32 %7) local_unnamed_addr #0 {
  %9 = getelementptr inbounds nuw i8, ptr %4, i64 72
  %10 = load ptr, ptr %9, align 8
  %11 = getelementptr inbounds nuw i8, ptr %10, i64 96
  %12 = load i32, ptr %11, align 8
  %13 = and i32 %12, 1
  %.not = icmp eq i32 %13, 0
  %14 = getelementptr inbounds nuw i8, ptr %4, i64 28
  %15 = load i32, ptr %14, align 4
  %.not46 = icmp ne i32 %15, 0
  br i1 %.not, label %21, label %16

16:                                               ; preds = %8
  %17 = and i32 %1, 7
  %.not49 = icmp eq i32 %17, 0
  %or.cond = or i1 %.not49, %.not46
  br i1 %or.cond, label %26, label %18

18:                                               ; preds = %16
  %19 = and i32 %1, -8
  %20 = add i32 %19, 8
  br label %26

21:                                               ; preds = %8
  %22 = and i32 %1, 3
  %.not47 = icmp eq i32 %22, 0
  %or.cond54 = or i1 %.not47, %.not46
  br i1 %or.cond54, label %26, label %23

23:                                               ; preds = %21
  %24 = and i32 %1, -4
  %25 = add i32 %24, 4
  br label %26

26:                                               ; preds = %21, %23, %16, %18
  %.0 = phi i32 [ %1, %16 ], [ %20, %18 ], [ %1, %21 ], [ %25, %23 ]
  %.not50 = icmp eq ptr %3, null
  br i1 %.not50, label %31, label %27

27:                                               ; preds = %26
  %28 = tail call ptr @proto_tree_add_item(ptr noundef nonnull %3, i32 noundef %6, ptr noundef %0, i32 noundef %.0, i32 noundef -1, i32 noundef 0) #5
  %29 = load i32, ptr @ett_lsarpc_lsa_StringLarge, align 4
  %30 = tail call ptr @proto_item_add_subtree(ptr noundef %28, i32 noundef %29) #5
  br label %31

31:                                               ; preds = %27, %26
  %.044 = phi ptr [ %28, %27 ], [ null, %26 ]
  %.043 = phi ptr [ %30, %27 ], [ null, %26 ]
  %32 = load i32, ptr @hf_lsarpc_lsa_StringLarge_length, align 4
  %33 = tail call i32 @PIDL_dissect_uint16(ptr noundef %0, i32 noundef %.0, ptr noundef %2, ptr noundef %.043, ptr noundef nonnull %4, ptr noundef %5, i32 noundef %32, i32 noundef 0) #5
  %34 = load i32, ptr @hf_lsarpc_lsa_StringLarge_size, align 4
  %35 = tail call i32 @PIDL_dissect_uint16(ptr noundef %0, i32 noundef %33, ptr noundef %2, ptr noundef %.043, ptr noundef nonnull %4, ptr noundef %5, i32 noundef %34, i32 noundef 0) #5
  %36 = load i32, ptr @hf_lsarpc_lsa_StringLarge_string, align 4
  %37 = tail call i32 @dissect_ndr_embedded_pointer(ptr noundef %0, i32 noundef %35, ptr noundef %2, ptr noundef %.043, ptr noundef nonnull %4, ptr noundef %5, ptr noundef nonnull @lsarpc_dissect_element_lsa_StringLarge_string_, i32 noundef 2, ptr noundef nonnull @.str.869, i32 noundef %36) #5
  %38 = sub i32 %37, %.0
  tail call void @proto_item_set_len(ptr noundef %.044, i32 noundef %38) #5
  %39 = load ptr, ptr %9, align 8
  %40 = getelementptr inbounds nuw i8, ptr %39, i64 96
  %41 = load i32, ptr %40, align 8
  %42 = and i32 %41, 1
  %.not51 = icmp eq i32 %42, 0
  br i1 %.not51, label %50, label %43

43:                                               ; preds = %31
  %44 = getelementptr inbounds nuw i8, ptr %4, i64 28
  %45 = load i32, ptr %44, align 4
  %.not52 = icmp ne i32 %45, 0
  %46 = and i32 %37, 7
  %.not53 = icmp eq i32 %46, 0
  %or.cond55 = or i1 %.not53, %.not52
  br i1 %or.cond55, label %50, label %47

47:                                               ; preds = %43
  %48 = and i32 %37, -8
  %49 = add i32 %48, 8
  br label %50

50:                                               ; preds = %47, %43, %31
  %.1 = phi i32 [ %37, %43 ], [ %49, %47 ], [ %37, %31 ]
  ret i32 %.1
}